#include <math.h>
#include <stdio.h>
#include <stdlib.h>
#include <string.h>

int main(){
	int row,col,i,j,k,N;
	int a[101][101];
	scanf("%d %d",&row,&col);
	for(i=0;i<row;i++){
		for(j=0;j<col;j++){
			scanf("%d",&a[i][j]);
		}
	}
	N=row+col-2;
	for(k=0;k<=N;k++){
		i=0;
		j=k-i;
		do{
    		if(i>=0 && j>=0 && i<row && j<col){
	    		printf("%d\n",a[i][j]);
	    		i++;
	    		j--;
			}else{
				i++;
				j--;
			}
		}while(j>=0);
	}
	return 0;
}